(dp1
S'poly1_y'
p2
(lp3
F2648.0417835184098
aF3513.1355739491737
aF18728.608711525565
aF19695.478242007008
aF23766.507844034131
aF25751.134775022358
aF24122.722934211502
aF22290.759613299302
aF21018.562862665822
aF18270.617881297509
aF17609.075570968103
aF5803.0897250894304
aF2902.4811336451048
aF2648.0417835184098
asS'poly1_x'
p4
(lp5
F-19049.382923102679
aF-7291.3599745312531
aF-7766.4316088169653
aF-11507.620728816964
aF-10676.24536881697
aF-18574.311288816967
aF-19821.374328816968
aF-20177.67805453125
aF-25462.849985959827
aF-25878.537665959826
aF-23918.867174531253
aF-26591.145117388398
aF-22909.339951674108
aF-19049.382923102679
asS'vert1_x'
p6
(lp7
F-19049.382923102679
aF-7291.3599745312531
aF-7766.4316088169653
aF-11507.620728816964
aF-10676.24536881697
aF-18574.311288816967
aF-19821.374328816968
aF-20177.67805453125
aF-25462.849985959827
aF-25878.537665959826
aF-23918.867174531253
aF-26591.145117388398
aF-22909.339951674108
asS'vert1_y'
p8
(lp9
F2648.0417835184098
aF3513.1355739491737
aF18728.608711525565
aF19695.478242007008
aF23766.507844034131
aF25751.134775022358
aF24122.722934211502
aF22290.759613299302
aF21018.562862665822
aF18270.617881297509
aF17609.075570968103
aF5803.0897250894304
aF2902.4811336451048
asS'metadata'
p10
S'Generated by setting_sample_bounds.ipynb on 14 November 2019 21:31:51 UTC'
p11
s.