(dp1
S'radius1'
p2
F1500
sS'radius2'
p3
F1500
sS'zc2'
p4
F2000
sS'magnetization_sph_coord2'
p5
(lp6
cnumpy.core.multiarray
scalar
p7
(cnumpy
dtype
p8
(S'f8'
I0
I1
tRp9
(I3
S'<'
NNNI-1
I-1
I0
tbS'\x00\x00\x00\x00\x00\x00.@'
tRp10
ag7
(g9
S'\xff\xff\xff\xff\xff\xffM\xc0'
tRp11
ag7
(g9
S'\xff\xff\xff\xff\xff\xffM@'
tRp12
asS'yc2'
p13
F-2000
sS'yc1'
p14
F2000
sS'magnetization_sph_coord1'
p15
(lp16
g7
(g9
S'\xff\xff\xff\xff\xff\xff-@'
tRp17
ag7
(g9
S'\xff\xff\xff\xff\xff\xffC@'
tRp18
ag7
(g9
S'\xff\xff\xff\xff\xff\xff3@'
tRp19
asS'inc_R2'
p20
F-60
sS'inc_R1'
p21
F40
sS'metadata'
p22
S'Generated by synthetic_model.ipynb on 08 September 2019 02:30:48 UTC'
p23
sS'xc2'
p24
F-2000
sS'dec_R2'
p25
F60
sS'dec_R1'
p26
F20
sS'xc1'
p27
F2000
sS'magnetization1'
p28
cnumpy.core.multiarray
_reconstruct
p29
(cnumpy
ndarray
p30
(I0
tS'b'
tRp31
(I1
(I3
tg9
I00
S'%\x85\x16ok\x98%@\x88$d\x86\xb8p\x0f@\xbaT\x18\xdd\x9bH#@'
tbsS'magnetization2'
p32
g29
(g30
(I0
tS'b'
tRp33
(I1
(I3
tg9
I00
S'\x04\x00\x00\x00\x00\x00\x0e@\xe1\xc7\xd29\x13\xfb\x19@\xdf\xc7\xd29\x13\xfb)\xc0'
tbsS'm_R2'
p34
F15
sS'model'
p35
(lp36
ccopy_reg
_reconstructor
p37
(cfatiando.mesher
Sphere
p38
c__builtin__
object
p39
NtRp40
(dp41
S'center'
p42
g29
(g30
(I0
tS'b'
tRp43
(I1
(I3
tg9
I00
S'\x00\x00\x00\x00\x00@\x9f@\x00\x00\x00\x00\x00@\x9f@\x00\x00\x00\x00\x00@\x9f@'
tbsS'radius'
p44
F1500
sS'props'
p45
(dp46
S'magnetization'
p47
g31
ssS'y'
F2000
sS'x'
F2000
sS'z'
F2000
sbag37
(g38
g39
NtRp48
(dp49
g42
g29
(g30
(I0
tS'b'
tRp50
(I1
(I3
tg9
I00
S'\x00\x00\x00\x00\x00@\x9f\xc0\x00\x00\x00\x00\x00@\x9f\xc0\x00\x00\x00\x00\x00@\x9f@'
tbsg44
F1500
sg45
(dp51
g47
g33
ssS'y'
F-2000
sS'x'
F-2000
sS'z'
F2000
sbasS'm_R1'
p52
F15
sS'zc1'
p53
F2000
s.